                              1 ;--------------------------------------------------------
                              2 ; File Created by SDCC : free open source ANSI-C Compiler
                              3 ; Version 3.6.8 #9946 (Linux)
                              4 ;--------------------------------------------------------
                              5 	.module render
                              6 	.optsdcc -mz80
                              7 	
                              8 ;--------------------------------------------------------
                              9 ; Public variables in this module
                             10 ;--------------------------------------------------------
                             11 	.globl _sysRenderUpdateEntity
                             12 	.globl _manEntityForAllMatching
                             13 	.globl _cpct_getScreenPtr
                             14 	.globl _cpct_setPALColour
                             15 	.globl _cpct_setPalette
                             16 	.globl _cpct_waitVSYNC
                             17 	.globl _cpct_setVideoMode
                             18 	.globl _cpct_drawSprite
                             19 	.globl _cpct_drawSolidBox
                             20 	.globl _cpct_px2byteM0
                             21 	.globl _cpct_disableFirmware
                             22 	.globl _sysRenderInit
                             23 	.globl _sysRenderLine
                             24 	.globl _sysRenderUpdate
                             25 ;--------------------------------------------------------
                             26 ; special function registers
                             27 ;--------------------------------------------------------
                             28 ;--------------------------------------------------------
                             29 ; ram data
                             30 ;--------------------------------------------------------
                             31 	.area _DATA
                             32 ;--------------------------------------------------------
                             33 ; ram data
                             34 ;--------------------------------------------------------
                             35 	.area _INITIALIZED
                             36 ;--------------------------------------------------------
                             37 ; absolute external ram data
                             38 ;--------------------------------------------------------
                             39 	.area _DABS (ABS)
                             40 ;--------------------------------------------------------
                             41 ; global & static initialisations
                             42 ;--------------------------------------------------------
                             43 	.area _HOME
                             44 	.area _GSINIT
                             45 	.area _GSFINAL
                             46 	.area _GSINIT
                             47 ;--------------------------------------------------------
                             48 ; Home
                             49 ;--------------------------------------------------------
                             50 	.area _HOME
                             51 	.area _HOME
                             52 ;--------------------------------------------------------
                             53 ; code
                             54 ;--------------------------------------------------------
                             55 	.area _CODE
                             56 ;src/sys/render.c:8: void sysRenderInit() {
                             57 ;	---------------------------------
                             58 ; Function sysRenderInit
                             59 ; ---------------------------------
   0000                      60 _sysRenderInit::
                             61 ;src/sys/render.c:9: cpct_disableFirmware();
   0000 CDr00r00      [17]   62 	call	_cpct_disableFirmware
                             63 ;src/sys/render.c:10: cpct_setVideoMode(0);
   0003 2E 00         [ 7]   64 	ld	l, #0x00
   0005 CDr00r00      [17]   65 	call	_cpct_setVideoMode
                             66 ;src/sys/render.c:11: cpct_setBorder(HW_BLACK);
   0008 21 10 14      [10]   67 	ld	hl, #0x1410
   000B E5            [11]   68 	push	hl
   000C CDr00r00      [17]   69 	call	_cpct_setPALColour
                             70 ;src/sys/render.c:12: cpct_setPalette(main_palette, 16);
   000F 21 10 00      [10]   71 	ld	hl, #0x0010
   0012 E5            [11]   72 	push	hl
   0013 21r00r00      [10]   73 	ld	hl, #_main_palette
   0016 E5            [11]   74 	push	hl
   0017 CDr00r00      [17]   75 	call	_cpct_setPalette
                             76 ;src/sys/render.c:15: CPCT_VMEM_START,
   001A 21 00 B9      [10]   77 	ld	hl, #0xb900
   001D E5            [11]   78 	push	hl
   001E 26 C0         [ 7]   79 	ld	h, #0xc0
   0020 E5            [11]   80 	push	hl
   0021 CDr00r00      [17]   81 	call	_cpct_getScreenPtr
   0024 E5            [11]   82 	push	hl
   0025 CDr7Er00      [17]   83 	call	_sysRenderLine
   0028 F1            [10]   84 	pop	af
   0029 C9            [10]   85 	ret
                             86 ;src/sys/render.c:19: void sysRenderUpdateEntity(Entity_t *e) {
                             87 ;	---------------------------------
                             88 ; Function sysRenderUpdateEntity
                             89 ; ---------------------------------
   002A                      90 _sysRenderUpdateEntity::
   002A DD E5         [15]   91 	push	ix
   002C DD 21 00 00   [14]   92 	ld	ix,#0
   0030 DD 39         [15]   93 	add	ix,sp
   0032 F5            [11]   94 	push	af
                             95 ;src/sys/render.c:20: Entity_t *render_e  = e;
   0033 DD 4E 04      [19]   96 	ld	c,4 (ix)
   0036 DD 46 05      [19]   97 	ld	b,5 (ix)
                             98 ;src/sys/render.c:22: if (!(render_e->type & E_TYPE_DEAD)) {
   0039 0A            [ 7]   99 	ld	a, (bc)
   003A 07            [ 4]  100 	rlca
   003B 38 3C         [12]  101 	jr	C,00103$
                            102 ;src/sys/render.c:23: u8 *pvmem = 
   003D 69            [ 4]  103 	ld	l, c
   003E 60            [ 4]  104 	ld	h, b
   003F 23            [ 6]  105 	inc	hl
   0040 23            [ 6]  106 	inc	hl
   0041 56            [ 7]  107 	ld	d, (hl)
   0042 69            [ 4]  108 	ld	l, c
   0043 60            [ 4]  109 	ld	h, b
   0044 23            [ 6]  110 	inc	hl
   0045 7E            [ 7]  111 	ld	a, (hl)
   0046 C5            [11]  112 	push	bc
   0047 5F            [ 4]  113 	ld	e, a
   0048 D5            [11]  114 	push	de
   0049 21 00 C0      [10]  115 	ld	hl, #0xc000
   004C E5            [11]  116 	push	hl
   004D CDr00r00      [17]  117 	call	_cpct_getScreenPtr
   0050 EB            [ 4]  118 	ex	de,hl
   0051 C1            [10]  119 	pop	bc
                            120 ;src/sys/render.c:31: render_e->h);
   0052 C5            [11]  121 	push	bc
   0053 FD E1         [14]  122 	pop	iy
   0055 FD 7E 04      [19]  123 	ld	a, 4 (iy)
   0058 DD 77 FF      [19]  124 	ld	-1 (ix), a
                            125 ;src/sys/render.c:30: render_e->w, 
   005B C5            [11]  126 	push	bc
   005C FD E1         [14]  127 	pop	iy
   005E FD 7E 03      [19]  128 	ld	a, 3 (iy)
   0061 DD 77 FE      [19]  129 	ld	-2 (ix), a
                            130 ;src/sys/render.c:29: pvmem, 
                            131 ;src/sys/render.c:28: render_e->sprite, 
   0064 69            [ 4]  132 	ld	l, c
   0065 60            [ 4]  133 	ld	h, b
   0066 01 08 00      [10]  134 	ld	bc, #0x0008
   0069 09            [11]  135 	add	hl, bc
   006A 4E            [ 7]  136 	ld	c, (hl)
   006B 23            [ 6]  137 	inc	hl
   006C 46            [ 7]  138 	ld	b, (hl)
   006D DD 66 FF      [19]  139 	ld	h, -1 (ix)
   0070 DD 6E FE      [19]  140 	ld	l, -2 (ix)
   0073 E5            [11]  141 	push	hl
   0074 D5            [11]  142 	push	de
   0075 C5            [11]  143 	push	bc
   0076 CDr00r00      [17]  144 	call	_cpct_drawSprite
   0079                     145 00103$:
   0079 DD F9         [10]  146 	ld	sp, ix
   007B DD E1         [14]  147 	pop	ix
   007D C9            [10]  148 	ret
                            149 ;src/sys/render.c:35: void sysRenderLine(u8 *pvmem) {
                            150 ;	---------------------------------
                            151 ; Function sysRenderLine
                            152 ; ---------------------------------
   007E                     153 _sysRenderLine::
                            154 ;src/sys/render.c:36: cpct_drawSolidBox (pvmem, cpct_px2byteM0(10,10), 64, 3);
   007E 21 0A 0A      [10]  155 	ld	hl, #0x0a0a
   0081 E5            [11]  156 	push	hl
   0082 CDr00r00      [17]  157 	call	_cpct_px2byteM0
   0085 26 00         [ 7]  158 	ld	h, #0x00
   0087 D1            [10]  159 	pop	de
   0088 C1            [10]  160 	pop	bc
   0089 C5            [11]  161 	push	bc
   008A D5            [11]  162 	push	de
   008B 11 40 03      [10]  163 	ld	de, #0x0340
   008E D5            [11]  164 	push	de
   008F E5            [11]  165 	push	hl
   0090 C5            [11]  166 	push	bc
   0091 CDr00r00      [17]  167 	call	_cpct_drawSolidBox
                            168 ;src/sys/render.c:37: pvmem += 64;
   0094 21 02 00      [10]  169 	ld	hl, #2
   0097 39            [11]  170 	add	hl, sp
   0098 7E            [ 7]  171 	ld	a, (hl)
   0099 C6 40         [ 7]  172 	add	a, #0x40
   009B 77            [ 7]  173 	ld	(hl), a
   009C 23            [ 6]  174 	inc	hl
   009D 7E            [ 7]  175 	ld	a, (hl)
   009E CE 00         [ 7]  176 	adc	a, #0x00
   00A0 77            [ 7]  177 	ld	(hl), a
                            178 ;src/sys/render.c:38: cpct_drawSolidBox (pvmem, cpct_px2byteM0(10,10), 16, 3);
   00A1 21 0A 0A      [10]  179 	ld	hl, #0x0a0a
   00A4 E5            [11]  180 	push	hl
   00A5 CDr00r00      [17]  181 	call	_cpct_px2byteM0
   00A8 26 00         [ 7]  182 	ld	h, #0x00
   00AA D1            [10]  183 	pop	de
   00AB C1            [10]  184 	pop	bc
   00AC C5            [11]  185 	push	bc
   00AD D5            [11]  186 	push	de
   00AE 11 10 03      [10]  187 	ld	de, #0x0310
   00B1 D5            [11]  188 	push	de
   00B2 E5            [11]  189 	push	hl
   00B3 C5            [11]  190 	push	bc
   00B4 CDr00r00      [17]  191 	call	_cpct_drawSolidBox
   00B7 C9            [10]  192 	ret
                            193 ;src/sys/render.c:41: void sysRenderUpdate() {  
                            194 ;	---------------------------------
                            195 ; Function sysRenderUpdate
                            196 ; ---------------------------------
   00B8                     197 _sysRenderUpdate::
                            198 ;src/sys/render.c:42: cpct_waitVSYNC();  
   00B8 CDr00r00      [17]  199 	call	_cpct_waitVSYNC
                            200 ;src/sys/render.c:44: sysRenderUpdateEntity, 
   00BB 3E 01         [ 7]  201 	ld	a, #0x01
   00BD F5            [11]  202 	push	af
   00BE 33            [ 6]  203 	inc	sp
   00BF 21r2Ar00      [10]  204 	ld	hl, #_sysRenderUpdateEntity
   00C2 E5            [11]  205 	push	hl
   00C3 CDr00r00      [17]  206 	call	_manEntityForAllMatching
   00C6 F1            [10]  207 	pop	af
   00C7 33            [ 6]  208 	inc	sp
   00C8 C9            [10]  209 	ret
                            210 	.area _CODE
                            211 	.area _INITIALIZER
                            212 	.area _CABS (ABS)
